; Function Attrs: mustprogress nofree norecurse nosync nounwind memory(argmem: readwrite) uwtable
define noundef i32 @_ZN10duckdb_lz433LZ4_decompress_fast_withPrefix64kEPKcPci(ptr noundef %0, ptr noundef %1, i32 noundef %2) local_unnamed_addr #10 {
  %4 = sext i32 %2 to i64
  %5 = getelementptr inbounds i8, ptr %1, i64 %4
  %6 = getelementptr inbounds i8, ptr %1, i64 -65536
  %7 = ptrtoint ptr %5 to i64
  %8 = ptrtoint ptr %6 to i64
  br label %.thread.i

.thread.i:                                        ; preds = %._crit_edge.i, %3
  %.0115.i = phi ptr [ %0, %3 ], [ %.4.i, %._crit_edge.i ]
  %.080.i = phi ptr [ %1, %3 ], [ %58, %._crit_edge.i ]
  %9 = getelementptr inbounds nuw i8, ptr %.0115.i, i64 1
  %10 = load i8, ptr %.0115.i, align 1, !tbaa !3
  %11 = zext i8 %10 to i32
  %12 = lshr i32 %11, 4
  %13 = zext nneg i32 %12 to i64
  %14 = icmp eq i32 %12, 15
  br i1 %14, label %.preheader140.i, label %22

.preheader140.i:                                  ; preds = %.thread.i, %.preheader140.i
  %15 = phi ptr [ %18, %.preheader140.i ], [ %9, %.thread.i ]
  %.0.i.i = phi i64 [ %19, %.preheader140.i ], [ 0, %.thread.i ]
  %16 = load i8, ptr %15, align 1, !tbaa !3
  %17 = zext i8 %16 to i64
  %18 = getelementptr inbounds nuw i8, ptr %15, i64 1
  %19 = add i64 %.0.i.i, %17
  %20 = icmp eq i8 %16, -1
  br i1 %20, label %.preheader140.i, label %_ZN10duckdb_lz425read_long_length_no_checkEPPKh.exit.i, !llvm.loop !31

_ZN10duckdb_lz425read_long_length_no_checkEPPKh.exit.i: ; preds = %.preheader140.i
  %21 = add i64 %19, 15
  br label %22

22:                                               ; preds = %_ZN10duckdb_lz425read_long_length_no_checkEPPKh.exit.i, %.thread.i
  %.1.i = phi ptr [ %18, %_ZN10duckdb_lz425read_long_length_no_checkEPPKh.exit.i ], [ %9, %.thread.i ]
  %.086.i = phi i64 [ %21, %_ZN10duckdb_lz425read_long_length_no_checkEPPKh.exit.i ], [ %13, %.thread.i ]
  %23 = ptrtoint ptr %.080.i to i64
  %24 = sub i64 %7, %23
  %25 = icmp ult i64 %24, %.086.i
  br i1 %25, label %_ZN10duckdb_lz4L29LZ4_decompress_unsafe_genericEPKhPhimS1_m.exit, label %26

26:                                               ; preds = %22
  tail call void @llvm.memmove.p0.p0.i64(ptr align 1 %.080.i, ptr nonnull align 1 %.1.i, i64 %.086.i, i1 false)
  %27 = getelementptr inbounds nuw i8, ptr %.080.i, i64 %.086.i
  %28 = getelementptr inbounds nuw i8, ptr %.1.i, i64 %.086.i
  %29 = ptrtoint ptr %27 to i64
  %30 = sub i64 %7, %29
  %31 = icmp ult i64 %30, 12
  br i1 %31, label %32, label %34

32:                                               ; preds = %26
  %33 = icmp eq ptr %27, %5
  br i1 %33, label %62, label %_ZN10duckdb_lz4L29LZ4_decompress_unsafe_genericEPKhPhimS1_m.exit

34:                                               ; preds = %26
  %35 = and i32 %11, 15
  %36 = zext nneg i32 %35 to i64
  %.val.i = load i16, ptr %28, align 1, !tbaa !3
  %37 = zext i16 %.val.i to i64
  %38 = getelementptr inbounds nuw i8, ptr %28, i64 2
  %39 = icmp eq i32 %35, 15
  br i1 %39, label %.preheader.i, label %47

.preheader.i:                                     ; preds = %34, %.preheader.i
  %40 = phi ptr [ %43, %.preheader.i ], [ %38, %34 ]
  %.0.i108.i = phi i64 [ %44, %.preheader.i ], [ 0, %34 ]
  %41 = load i8, ptr %40, align 1, !tbaa !3
  %42 = zext i8 %41 to i64
  %43 = getelementptr inbounds nuw i8, ptr %40, i64 1
  %44 = add i64 %.0.i108.i, %42
  %45 = icmp eq i8 %41, -1
  br i1 %45, label %.preheader.i, label %_ZN10duckdb_lz425read_long_length_no_checkEPPKh.exit109.i, !llvm.loop !31

_ZN10duckdb_lz425read_long_length_no_checkEPPKh.exit109.i: ; preds = %.preheader.i
  %46 = add i64 %44, 15
  br label %47

47:                                               ; preds = %_ZN10duckdb_lz425read_long_length_no_checkEPPKh.exit109.i, %34
  %.4.i = phi ptr [ %43, %_ZN10duckdb_lz425read_long_length_no_checkEPPKh.exit109.i ], [ %38, %34 ]
  %.092.i = phi i64 [ %46, %_ZN10duckdb_lz425read_long_length_no_checkEPPKh.exit109.i ], [ %36, %34 ]
  %48 = add i64 %.092.i, 4
  %49 = icmp ult i64 %30, %48
  %50 = sub i64 %29, %8
  %.not.i = icmp ult i64 %50, %37
  %or.cond = select i1 %49, i1 true, i1 %.not.i
  br i1 %or.cond, label %_ZN10duckdb_lz4L29LZ4_decompress_unsafe_genericEPKhPhimS1_m.exit, label %51

51:                                               ; preds = %47
  %52 = sub nsw i64 0, %37
  %53 = getelementptr inbounds i8, ptr %27, i64 %52
  %.not147.i = icmp eq i64 %48, 0
  br i1 %.not147.i, label %._crit_edge.i, label %.lr.ph.i

.lr.ph.i:                                         ; preds = %51, %.lr.ph.i
  %.0146.i = phi i64 [ %57, %.lr.ph.i ], [ 0, %51 ]
  %54 = getelementptr inbounds nuw i8, ptr %53, i64 %.0146.i
  %55 = load i8, ptr %54, align 1, !tbaa !3
  %56 = getelementptr inbounds nuw i8, ptr %27, i64 %.0146.i
  store i8 %55, ptr %56, align 1, !tbaa !3
  %57 = add nuw i64 %.0146.i, 1
  %exitcond.not.i = icmp eq i64 %57, %48
  br i1 %exitcond.not.i, label %._crit_edge.i, label %.lr.ph.i, !llvm.loop !44

._crit_edge.i:                                    ; preds = %.lr.ph.i, %51
  %58 = getelementptr inbounds nuw i8, ptr %27, i64 %48
  %59 = ptrtoint ptr %58 to i64
  %60 = sub i64 %7, %59
  %61 = icmp ult i64 %60, 5
  br i1 %61, label %_ZN10duckdb_lz4L29LZ4_decompress_unsafe_genericEPKhPhimS1_m.exit, label %.thread.i

62:                                               ; preds = %32
  %63 = ptrtoint ptr %28 to i64
  %64 = ptrtoint ptr %0 to i64
  %65 = sub i64 %63, %64
  %66 = trunc i64 %65 to i32
  br label %_ZN10duckdb_lz4L29LZ4_decompress_unsafe_genericEPKhPhimS1_m.exit

_ZN10duckdb_lz4L29LZ4_decompress_unsafe_genericEPKhPhimS1_m.exit: ; preds = %22, %47, %._crit_edge.i, %32, %62
  %.5.i = phi i32 [ %66, %62 ], [ -1, %32 ], [ -1, %._crit_edge.i ], [ -1, %47 ], [ -1, %22 ]
  ret i32 %.5.i
}